; ModuleID = '31/118.c'
source_filename = "31/118.c"
target datalayout = "e-m:e-p270:32:32-p271:32:32-p272:64:64-i64:64-f80:128-n8:16:32:64-S128"
target triple = "x86_64-pc-linux-gnu"

%struct.stu = type { [20 x i8], [20 x i8], i8, i32, float, [20 x i8], %struct.stu* }

@.str = private unnamed_addr constant [3 x i8] c"%s\00", align 1
@.str.1 = private unnamed_addr constant [12 x i8] c"%s %c%d%f%s\00", align 1
@.str.2 = private unnamed_addr constant [19 x i8] c"%s %s %c %d %g %s\0A\00", align 1

; Function Attrs: noinline nounwind uwtable
define dso_local void @main() #0 {
  %1 = alloca %struct.stu*, align 8
  %2 = alloca %struct.stu*, align 8
  %3 = call noalias i8* @malloc(i64 80) #3
  %4 = bitcast i8* %3 to %struct.stu*
  store %struct.stu* %4, %struct.stu** %1, align 8
  %5 = load %struct.stu*, %struct.stu** %1, align 8
  %6 = getelementptr inbounds %struct.stu, %struct.stu* %5, i32 0, i32 0
  %7 = getelementptr inbounds [20 x i8], [20 x i8]* %6, i64 0, i64 0
  %8 = call i32 (i8*, ...) @__isoc99_scanf(i8* getelementptr inbounds ([3 x i8], [3 x i8]* @.str, i64 0, i64 0), i8* %7)
  %9 = load %struct.stu*, %struct.stu** %1, align 8
  %10 = getelementptr inbounds %struct.stu, %struct.stu* %9, i32 0, i32 0
  %11 = getelementptr inbounds [20 x i8], [20 x i8]* %10, i64 0, i64 0
  %12 = load i8, i8* %11, align 8
  %13 = sext i8 %12 to i32
  %14 = icmp ne i32 %13, 101
  br i1 %14, label %15, label %95

15:                                               ; preds = %0
  %16 = load %struct.stu*, %struct.stu** %1, align 8
  %17 = getelementptr inbounds %struct.stu, %struct.stu* %16, i32 0, i32 1
  %18 = getelementptr inbounds [20 x i8], [20 x i8]* %17, i64 0, i64 0
  %19 = load %struct.stu*, %struct.stu** %1, align 8
  %20 = getelementptr inbounds %struct.stu, %struct.stu* %19, i32 0, i32 2
  %21 = load %struct.stu*, %struct.stu** %1, align 8
  %22 = getelementptr inbounds %struct.stu, %struct.stu* %21, i32 0, i32 3
  %23 = load %struct.stu*, %struct.stu** %1, align 8
  %24 = getelementptr inbounds %struct.stu, %struct.stu* %23, i32 0, i32 4
  %25 = load %struct.stu*, %struct.stu** %1, align 8
  %26 = getelementptr inbounds %struct.stu, %struct.stu* %25, i32 0, i32 5
  %27 = getelementptr inbounds [20 x i8], [20 x i8]* %26, i64 0, i64 0
  %28 = call i32 (i8*, ...) @__isoc99_scanf(i8* getelementptr inbounds ([12 x i8], [12 x i8]* @.str.1, i64 0, i64 0), i8* %18, i8* %20, i32* %22, float* %24, i8* %27)
  %29 = load %struct.stu*, %struct.stu** %1, align 8
  %30 = getelementptr inbounds %struct.stu, %struct.stu* %29, i32 0, i32 6
  store %struct.stu* null, %struct.stu** %30, align 8
  br label %31

31:                                               ; preds = %46, %15
  %32 = load %struct.stu*, %struct.stu** %1, align 8
  store %struct.stu* %32, %struct.stu** %2, align 8
  %33 = call noalias i8* @malloc(i64 80) #3
  %34 = bitcast i8* %33 to %struct.stu*
  store %struct.stu* %34, %struct.stu** %1, align 8
  %35 = load %struct.stu*, %struct.stu** %1, align 8
  %36 = getelementptr inbounds %struct.stu, %struct.stu* %35, i32 0, i32 0
  %37 = getelementptr inbounds [20 x i8], [20 x i8]* %36, i64 0, i64 0
  %38 = call i32 (i8*, ...) @__isoc99_scanf(i8* getelementptr inbounds ([3 x i8], [3 x i8]* @.str, i64 0, i64 0), i8* %37)
  %39 = load %struct.stu*, %struct.stu** %1, align 8
  %40 = getelementptr inbounds %struct.stu, %struct.stu* %39, i32 0, i32 0
  %41 = getelementptr inbounds [20 x i8], [20 x i8]* %40, i64 0, i64 0
  %42 = load i8, i8* %41, align 8
  %43 = sext i8 %42 to i32
  %44 = icmp eq i32 %43, 101
  br i1 %44, label %45, label %46

45:                                               ; preds = %31
  br label %63

46:                                               ; preds = %31
  %47 = load %struct.stu*, %struct.stu** %1, align 8
  %48 = getelementptr inbounds %struct.stu, %struct.stu* %47, i32 0, i32 1
  %49 = getelementptr inbounds [20 x i8], [20 x i8]* %48, i64 0, i64 0
  %50 = load %struct.stu*, %struct.stu** %1, align 8
  %51 = getelementptr inbounds %struct.stu, %struct.stu* %50, i32 0, i32 2
  %52 = load %struct.stu*, %struct.stu** %1, align 8
  %53 = getelementptr inbounds %struct.stu, %struct.stu* %52, i32 0, i32 3
  %54 = load %struct.stu*, %struct.stu** %1, align 8
  %55 = getelementptr inbounds %struct.stu, %struct.stu* %54, i32 0, i32 4
  %56 = load %struct.stu*, %struct.stu** %1, align 8
  %57 = getelementptr inbounds %struct.stu, %struct.stu* %56, i32 0, i32 5
  %58 = getelementptr inbounds [20 x i8], [20 x i8]* %57, i64 0, i64 0
  %59 = call i32 (i8*, ...) @__isoc99_scanf(i8* getelementptr inbounds ([12 x i8], [12 x i8]* @.str.1, i64 0, i64 0), i8* %49, i8* %51, i32* %53, float* %55, i8* %58)
  %60 = load %struct.stu*, %struct.stu** %2, align 8
  %61 = load %struct.stu*, %struct.stu** %1, align 8
  %62 = getelementptr inbounds %struct.stu, %struct.stu* %61, i32 0, i32 6
  store %struct.stu* %60, %struct.stu** %62, align 8
  br label %31

63:                                               ; preds = %45
  %64 = load %struct.stu*, %struct.stu** %2, align 8
  store %struct.stu* %64, %struct.stu** %1, align 8
  br label %65

65:                                               ; preds = %90, %63
  %66 = load %struct.stu*, %struct.stu** %1, align 8
  %67 = icmp ne %struct.stu* %66, null
  br i1 %67, label %68, label %94

68:                                               ; preds = %65
  %69 = load %struct.stu*, %struct.stu** %1, align 8
  %70 = getelementptr inbounds %struct.stu, %struct.stu* %69, i32 0, i32 0
  %71 = getelementptr inbounds [20 x i8], [20 x i8]* %70, i64 0, i64 0
  %72 = load %struct.stu*, %struct.stu** %1, align 8
  %73 = getelementptr inbounds %struct.stu, %struct.stu* %72, i32 0, i32 1
  %74 = getelementptr inbounds [20 x i8], [20 x i8]* %73, i64 0, i64 0
  %75 = load %struct.stu*, %struct.stu** %1, align 8
  %76 = getelementptr inbounds %struct.stu, %struct.stu* %75, i32 0, i32 2
  %77 = load i8, i8* %76, align 8
  %78 = sext i8 %77 to i32
  %79 = load %struct.stu*, %struct.stu** %1, align 8
  %80 = getelementptr inbounds %struct.stu, %struct.stu* %79, i32 0, i32 3
  %81 = load i32, i32* %80, align 4
  %82 = load %struct.stu*, %struct.stu** %1, align 8
  %83 = getelementptr inbounds %struct.stu, %struct.stu* %82, i32 0, i32 4
  %84 = load float, float* %83, align 8
  %85 = fpext float %84 to double
  %86 = load %struct.stu*, %struct.stu** %1, align 8
  %87 = getelementptr inbounds %struct.stu, %struct.stu* %86, i32 0, i32 5
  %88 = getelementptr inbounds [20 x i8], [20 x i8]* %87, i64 0, i64 0
  %89 = call i32 (i8*, ...) @printf(i8* getelementptr inbounds ([19 x i8], [19 x i8]* @.str.2, i64 0, i64 0), i8* %71, i8* %74, i32 %78, i32 %81, double %85, i8* %88)
  br label %90

90:                                               ; preds = %68
  %91 = load %struct.stu*, %struct.stu** %1, align 8
  %92 = getelementptr inbounds %struct.stu, %struct.stu* %91, i32 0, i32 6
  %93 = load %struct.stu*, %struct.stu** %92, align 8
  store %struct.stu* %93, %struct.stu** %1, align 8
  br label %65

94:                                               ; preds = %65
  br label %95

95:                                               ; preds = %94, %0
  ret void
}

; Function Attrs: nounwind
declare dso_local noalias i8* @malloc(i64) #1

declare dso_local i32 @__isoc99_scanf(i8*, ...) #2

declare dso_local i32 @printf(i8*, ...) #2


!llvm.module.flags = !{!0}
!llvm.ident = !{!1}

!0 = !{i32 1, !"wchar_size", i32 4}
!1 = !{!"clang version 10.0.0-4ubuntu1 "}
